
build/output.elf:     file format elf32-littlearm


Disassembly of section .init:

00008000 <_start>:
    8000:	ea1209ab 	b	48a6b4 <main>

Disassembly of section .text:

0048a030 <EnableJTAG>:
  48a030:	e52de004 	push	{lr}		; (str lr, [sp, #-4]!)
  48a034:	e59f0064 	ldr	r0, [pc, #100]	; 48a0a0 <dowaitloop+0xc>
  48a038:	e0211001 	eor	r1, r1, r1
  48a03c:	e5801000 	str	r1, [r0]
  48a040:	eb000012 	bl	48a090 <dowait>
  48a044:	e59f0058 	ldr	r0, [pc, #88]	; 48a0a4 <dowaitloop+0x10>
  48a048:	e59f1058 	ldr	r1, [pc, #88]	; 48a0a8 <dowaitloop+0x14>
  48a04c:	e5801000 	str	r1, [r0]
  48a050:	eb00000e 	bl	48a090 <dowait>
  48a054:	e0211001 	eor	r1, r1, r1
  48a058:	e5801000 	str	r1, [r0]
  48a05c:	e59f0048 	ldr	r0, [pc, #72]	; 48a0ac <dowaitloop+0x18>
  48a060:	e5901000 	ldr	r1, [r0]
  48a064:	e3c11a07 	bic	r1, r1, #28672	; 0x7000
  48a068:	e3811a02 	orr	r1, r1, #8192	; 0x2000
  48a06c:	e5801000 	str	r1, [r0]
  48a070:	e59f0038 	ldr	r0, [pc, #56]	; 48a0b0 <dowaitloop+0x1c>
  48a074:	e5901000 	ldr	r1, [r0]
  48a078:	e59f2034 	ldr	r2, [pc, #52]	; 48a0b4 <dowaitloop+0x20>
  48a07c:	e1c11002 	bic	r1, r1, r2
  48a080:	e59f2030 	ldr	r2, [pc, #48]	; 48a0b8 <dowaitloop+0x24>
  48a084:	e1811002 	orr	r1, r1, r2
  48a088:	e5801000 	str	r1, [r0]
  48a08c:	e49df004 	pop	{pc}		; (ldr pc, [sp], #4)

0048a090 <dowait>:
  48a090:	e3a02f4b 	mov	r2, #300	; 0x12c

0048a094 <dowaitloop>:
  48a094:	e2522001 	subs	r2, r2, #1
  48a098:	1afffffd 	bne	48a094 <dowaitloop>
  48a09c:	e12fff1e 	bx	lr
  48a0a0:	3f200094 	.word	0x3f200094
  48a0a4:	3f200098 	.word	0x3f200098
  48a0a8:	0bc00010 	.word	0x0bc00010
  48a0ac:	3f200000 	.word	0x3f200000
  48a0b0:	3f200008 	.word	0x3f200008
  48a0b4:	00e3ffc0 	.word	0x00e3ffc0
  48a0b8:	0061b6c0 	.word	0x0061b6c0

0048a0bc <InitFrameBuffer>:
  48a0bc:	e59f2068 	ldr	r2, [pc, #104]	; 48a12c <pointerWaitLoop$+0x1c>
  48a0c0:	e59f3068 	ldr	r3, [pc, #104]	; 48a130 <pointerWaitLoop$+0x20>

0048a0c4 <mBoxFullLoop$>:
  48a0c4:	e5920018 	ldr	r0, [r2, #24]
  48a0c8:	e3100102 	tst	r0, #-2147483648	; 0x80000000
  48a0cc:	1afffffc 	bne	48a0c4 <mBoxFullLoop$>
  48a0d0:	e2830101 	add	r0, r3, #1073741824	; 0x40000000
  48a0d4:	e3800008 	orr	r0, r0, #8
  48a0d8:	e5820020 	str	r0, [r2, #32]

0048a0dc <mBoxEmptyLoop$>:
  48a0dc:	e5920018 	ldr	r0, [r2, #24]
  48a0e0:	e3100101 	tst	r0, #1073741824	; 0x40000000
  48a0e4:	1afffffc 	bne	48a0dc <mBoxEmptyLoop$>
  48a0e8:	e5920000 	ldr	r0, [r2]
  48a0ec:	e200100f 	and	r1, r0, #15
  48a0f0:	e3310008 	teq	r1, #8
  48a0f4:	1afffff8 	bne	48a0dc <mBoxEmptyLoop$>
  48a0f8:	e59f0030 	ldr	r0, [pc, #48]	; 48a130 <pointerWaitLoop$+0x20>
  48a0fc:	e5901004 	ldr	r1, [r0, #4]
  48a100:	e3310102 	teq	r1, #-2147483648	; 0x80000000
  48a104:	0a000001 	beq	48a110 <pointerWaitLoop$>
  48a108:	13a00000 	movne	r0, #0
  48a10c:	112fff1e 	bxne	lr

0048a110 <pointerWaitLoop$>:
  48a110:	e59f001c 	ldr	r0, [pc, #28]	; 48a134 <pointerWaitLoop$+0x24>
  48a114:	e5900000 	ldr	r0, [r0]
  48a118:	e3300000 	teq	r0, #0
  48a11c:	0afffffb 	beq	48a110 <pointerWaitLoop$>
  48a120:	e59f3010 	ldr	r3, [pc, #16]	; 48a138 <pointerWaitLoop$+0x28>
  48a124:	e5830000 	str	r0, [r3]
  48a128:	e12fff1e 	bx	lr
  48a12c:	3f00b880 	.word	0x3f00b880
  48a130:	00489e90 	.word	0x00489e90
  48a134:	00489edc 	.word	0x00489edc
  48a138:	00489ef0 	.word	0x00489ef0

0048a13c <endJump>:
  48a13c:	e52de004 	push	{lr}		; (str lr, [sp, #-4]!)
  48a140:	e59f0018 	ldr	r0, [pc, #24]	; 48a160 <endJump+0x24>
  48a144:	e3e01000 	mvn	r1, #0
  48a148:	e5801000 	str	r1, [r0]
  48a14c:	e59f0010 	ldr	r0, [pc, #16]	; 48a164 <endJump+0x28>
  48a150:	e3a01000 	mov	r1, #0
  48a154:	e5801000 	str	r1, [r0]
  48a158:	e49de004 	pop	{lr}		; (ldr lr, [sp], #4)
  48a15c:	e12fff1e 	bx	lr
  48a160:	000090f4 	.word	0x000090f4
  48a164:	000090f0 	.word	0x000090f0

0048a168 <moveThing>:
  48a168:	e92d43f0 	push	{r4, r5, r6, r7, r8, r9, lr}
  48a16c:	e8b000f0 	ldm	r0!, {r4, r5, r6, r7}
  48a170:	e1a0a000 	mov	sl, r0
  48a174:	e0448006 	sub	r8, r4, r6
  48a178:	e0459007 	sub	r9, r5, r7
  48a17c:	e9900030 	ldmib	r0, {r4, r5}
  48a180:	e0880006 	add	r0, r8, r6
  48a184:	e0400004 	sub	r0, r0, r4
  48a188:	e0891007 	add	r1, r9, r7
  48a18c:	e0411005 	sub	r1, r1, r5
  48a190:	e1a0200a 	mov	r2, sl
  48a194:	eb000069 	bl	48a340 <drawPicture>
  48a198:	e3e02000 	mvn	r2, #0
  48a19c:	e1b00006 	movs	r0, r6
  48a1a0:	40000296 	mulmi	r0, r6, r2
  48a1a4:	e1b01007 	movs	r1, r7
  48a1a8:	40010297 	mulmi	r1, r7, r2
  48a1ac:	e1500004 	cmp	r0, r4
  48a1b0:	ca000004 	bgt	48a1c8 <teleport>
  48a1b4:	e1510005 	cmp	r1, r5
  48a1b8:	ca000002 	bgt	48a1c8 <teleport>
  48a1bc:	e3560000 	cmp	r6, #0
  48a1c0:	ba00000e 	blt	48a200 <move_backward>
  48a1c4:	ea000005 	b	48a1e0 <move_foreward>

0048a1c8 <teleport>:
  48a1c8:	e0480004 	sub	r0, r8, r4
  48a1cc:	e1a01008 	mov	r1, r8
  48a1d0:	e0492005 	sub	r2, r9, r5
  48a1d4:	e1a03009 	mov	r3, r9
  48a1d8:	eb000020 	bl	48a260 <Redraw_Background_X>
  48a1dc:	ea000019 	b	48a248 <move_end>

0048a1e0 <move_foreward>:
  48a1e0:	e0480004 	sub	r0, r8, r4
  48a1e4:	e0801006 	add	r1, r0, r6
  48a1e8:	e0492005 	sub	r2, r9, r5
  48a1ec:	e1a03009 	mov	r3, r9
  48a1f0:	eb00001a 	bl	48a260 <Redraw_Background_X>
  48a1f4:	e3570000 	cmp	r7, #0
  48a1f8:	ca00000d 	bgt	48a234 <move_down>
  48a1fc:	ba000006 	blt	48a21c <move_up>

0048a200 <move_backward>:
  48a200:	e0880006 	add	r0, r8, r6
  48a204:	e1a01008 	mov	r1, r8
  48a208:	e0492005 	sub	r2, r9, r5
  48a20c:	e1a03009 	mov	r3, r9
  48a210:	eb000012 	bl	48a260 <Redraw_Background_X>
  48a214:	e3570000 	cmp	r7, #0
  48a218:	ca000005 	bgt	48a234 <move_down>

0048a21c <move_up>:
  48a21c:	e0892007 	add	r2, r9, r7
  48a220:	e1a03009 	mov	r3, r9
  48a224:	e0480004 	sub	r0, r8, r4
  48a228:	e1a01008 	mov	r1, r8
  48a22c:	eb000023 	bl	48a2c0 <Redraw_Background_Y>
  48a230:	ea000004 	b	48a248 <move_end>

0048a234 <move_down>:
  48a234:	e0492005 	sub	r2, r9, r5
  48a238:	e0823007 	add	r3, r2, r7
  48a23c:	e0480004 	sub	r0, r8, r4
  48a240:	e1a01008 	mov	r1, r8
  48a244:	eb00001d 	bl	48a2c0 <Redraw_Background_Y>

0048a248 <move_end>:
  48a248:	e24aa008 	sub	sl, sl, #8
  48a24c:	e3a01000 	mov	r1, #0
  48a250:	e3a02000 	mov	r2, #0
  48a254:	e88a0006 	stm	sl, {r1, r2}
  48a258:	e8bd43f0 	pop	{r4, r5, r6, r7, r8, r9, lr}
  48a25c:	e12fff1e 	bx	lr

0048a260 <Redraw_Background_X>:
  48a260:	e92d47f0 	push	{r4, r5, r6, r7, r8, r9, sl, lr}
  48a264:	e1a04000 	mov	r4, r0
  48a268:	e1a05001 	mov	r5, r1
  48a26c:	e1a06002 	mov	r6, r2
  48a270:	e1a07003 	mov	r7, r3
  48a274:	ea00000d 	b	48a2b0 <rb_x_loop_test_0>

0048a278 <rb_x_loop_0>:
  48a278:	e1a08006 	mov	r8, r6
  48a27c:	ea000008 	b	48a2a4 <rb_x_loop_test_1>

0048a280 <rb_x_loop_1>:
  48a280:	e1a00004 	mov	r0, r4
  48a284:	e1a01008 	mov	r1, r8
  48a288:	e0809501 	add	r9, r0, r1, lsl #10
  48a28c:	e1a09089 	lsl	r9, r9, #1
  48a290:	e59fa1a0 	ldr	sl, [pc, #416]	; 48a438 <rec_next_line+0x14>
  48a294:	e59aa000 	ldr	sl, [sl]
  48a298:	e19a20b9 	ldrh	r2, [sl, r9]
  48a29c:	eb00001f 	bl	48a320 <DrawPixel>
  48a2a0:	e2888001 	add	r8, r8, #1

0048a2a4 <rb_x_loop_test_1>:
  48a2a4:	e1580007 	cmp	r8, r7
  48a2a8:	bafffff4 	blt	48a280 <rb_x_loop_1>
  48a2ac:	e2844001 	add	r4, r4, #1

0048a2b0 <rb_x_loop_test_0>:
  48a2b0:	e1540005 	cmp	r4, r5
  48a2b4:	baffffef 	blt	48a278 <rb_x_loop_0>
  48a2b8:	e8bd47f0 	pop	{r4, r5, r6, r7, r8, r9, sl, lr}
  48a2bc:	e12fff1e 	bx	lr

0048a2c0 <Redraw_Background_Y>:
  48a2c0:	e92d47f0 	push	{r4, r5, r6, r7, r8, r9, sl, lr}
  48a2c4:	e1a04000 	mov	r4, r0
  48a2c8:	e1a05001 	mov	r5, r1
  48a2cc:	e1a06002 	mov	r6, r2
  48a2d0:	e1a07003 	mov	r7, r3
  48a2d4:	ea00000d 	b	48a310 <rb_y_loop_test_0>

0048a2d8 <rb_y_loop_0>:
  48a2d8:	e1a08004 	mov	r8, r4
  48a2dc:	ea000008 	b	48a304 <rb_y_loop_test_1>

0048a2e0 <rb_y_loop_1>:
  48a2e0:	e1a00008 	mov	r0, r8
  48a2e4:	e1a01006 	mov	r1, r6
  48a2e8:	e0809501 	add	r9, r0, r1, lsl #10
  48a2ec:	e1a09089 	lsl	r9, r9, #1
  48a2f0:	e59fa140 	ldr	sl, [pc, #320]	; 48a438 <rec_next_line+0x14>
  48a2f4:	e59aa000 	ldr	sl, [sl]
  48a2f8:	e19a20b9 	ldrh	r2, [sl, r9]
  48a2fc:	eb000007 	bl	48a320 <DrawPixel>
  48a300:	e2888001 	add	r8, r8, #1

0048a304 <rb_y_loop_test_1>:
  48a304:	e1580005 	cmp	r8, r5
  48a308:	bafffff4 	blt	48a2e0 <rb_y_loop_1>
  48a30c:	e2866001 	add	r6, r6, #1

0048a310 <rb_y_loop_test_0>:
  48a310:	e1560007 	cmp	r6, r7
  48a314:	baffffef 	blt	48a2d8 <rb_y_loop_0>
  48a318:	e8bd47f0 	pop	{r4, r5, r6, r7, r8, r9, sl, lr}
  48a31c:	e12fff1e 	bx	lr

0048a320 <DrawPixel>:
  48a320:	e52d4004 	push	{r4}		; (str r4, [sp, #-4]!)
  48a324:	e0804501 	add	r4, r0, r1, lsl #10
  48a328:	e1a04084 	lsl	r4, r4, #1
  48a32c:	e59f0108 	ldr	r0, [pc, #264]	; 48a43c <rec_next_line+0x18>
  48a330:	e5900000 	ldr	r0, [r0]
  48a334:	e18020b4 	strh	r2, [r0, r4]
  48a338:	e49d4004 	pop	{r4}		; (ldr r4, [sp], #4)
  48a33c:	e12fff1e 	bx	lr

0048a340 <drawPicture>:
  48a340:	e92d43f0 	push	{r4, r5, r6, r7, r8, r9, lr}
  48a344:	e1a04000 	mov	r4, r0
  48a348:	e1a05001 	mov	r5, r1
  48a34c:	e89201c0 	ldm	r2, {r6, r7, r8}
  48a350:	e0877004 	add	r7, r7, r4
  48a354:	e0888005 	add	r8, r8, r5
  48a358:	e1a09000 	mov	r9, r0

0048a35c <drawPictureLoop>:
  48a35c:	e1a00004 	mov	r0, r4
  48a360:	e1a01005 	mov	r1, r5
  48a364:	e0d620b2 	ldrh	r2, [r6], #2
  48a368:	ebffffec 	bl	48a320 <DrawPixel>
  48a36c:	e2844001 	add	r4, r4, #1
  48a370:	e1540007 	cmp	r4, r7
  48a374:	bafffff8 	blt	48a35c <drawPictureLoop>
  48a378:	e1a04009 	mov	r4, r9
  48a37c:	e2855001 	add	r5, r5, #1
  48a380:	e1550008 	cmp	r5, r8
  48a384:	bafffff4 	blt	48a35c <drawPictureLoop>
  48a388:	e8bd43f0 	pop	{r4, r5, r6, r7, r8, r9, lr}
  48a38c:	e1a0f00e 	mov	pc, lr

0048a390 <clearScreen>:
  48a390:	e92d41f0 	push	{r4, r5, r6, r7, r8, lr}
  48a394:	e3a04000 	mov	r4, #0
  48a398:	e3a05000 	mov	r5, #0
  48a39c:	e59f609c 	ldr	r6, [pc, #156]	; 48a440 <rec_next_line+0x1c>
  48a3a0:	e59f709c 	ldr	r7, [pc, #156]	; 48a444 <rec_next_line+0x20>
  48a3a4:	e59f809c 	ldr	r8, [pc, #156]	; 48a448 <rec_next_line+0x24>

0048a3a8 <Looping>:
  48a3a8:	e1a00004 	mov	r0, r4
  48a3ac:	e1a01005 	mov	r1, r5
  48a3b0:	e1a02006 	mov	r2, r6
  48a3b4:	e52de004 	push	{lr}		; (str lr, [sp, #-4]!)
  48a3b8:	ebffffd8 	bl	48a320 <DrawPixel>
  48a3bc:	e49de004 	pop	{lr}		; (ldr lr, [sp], #4)
  48a3c0:	e2844001 	add	r4, r4, #1
  48a3c4:	e1540007 	cmp	r4, r7
  48a3c8:	dafffff6 	ble	48a3a8 <Looping>
  48a3cc:	e3a04000 	mov	r4, #0
  48a3d0:	e2855001 	add	r5, r5, #1
  48a3d4:	e1550008 	cmp	r5, r8
  48a3d8:	dafffff2 	ble	48a3a8 <Looping>
  48a3dc:	e8bd41f0 	pop	{r4, r5, r6, r7, r8, lr}
  48a3e0:	e1a0f00e 	mov	pc, lr

0048a3e4 <redrawBlocks>:
  48a3e4:	e52de004 	push	{lr}		; (str lr, [sp, #-4]!)
  48a3e8:	e49de004 	pop	{lr}		; (ldr lr, [sp], #4)
  48a3ec:	e12fff1e 	bx	lr

0048a3f0 <drawRectangle>:
  48a3f0:	e92d4180 	push	{r7, r8, lr}
  48a3f4:	e1a07000 	mov	r7, r0
  48a3f8:	e1a06000 	mov	r6, r0
  48a3fc:	e1a08001 	mov	r8, r1
  48a400:	e0833007 	add	r3, r3, r7
  48a404:	e0844008 	add	r4, r4, r8

0048a408 <rec_top>:
  48a408:	e1570003 	cmp	r7, r3
  48a40c:	2a000004 	bcs	48a424 <rec_next_line>
  48a410:	e1a00007 	mov	r0, r7
  48a414:	e1a01008 	mov	r1, r8
  48a418:	ebffffc0 	bl	48a320 <DrawPixel>
  48a41c:	e2877001 	add	r7, r7, #1
  48a420:	eafffff8 	b	48a408 <rec_top>

0048a424 <rec_next_line>:
  48a424:	e1580004 	cmp	r8, r4
  48a428:	88bd8180 	pophi	{r7, r8, pc}
  48a42c:	e1a07006 	mov	r7, r6
  48a430:	e2888001 	add	r8, r8, #1
  48a434:	eafffff3 	b	48a408 <rec_top>
  48a438:	000090c8 	.word	0x000090c8
  48a43c:	00489ef0 	.word	0x00489ef0
  48a440:	0000ff80 	.word	0x0000ff80
  48a444:	000003ff 	.word	0x000003ff
  48a448:	000002ff 	.word	0x000002ff

0048a44c <InitGPIOSNES>:
  48a44c:	e52de004 	push	{lr}		; (str lr, [sp, #-4]!)
  48a450:	e3a00009 	mov	r0, #9
  48a454:	e3a01001 	mov	r1, #1
  48a458:	eb000006 	bl	48a478 <Init_GPIO>
  48a45c:	e3a0000a 	mov	r0, #10
  48a460:	e3a01000 	mov	r1, #0
  48a464:	eb000003 	bl	48a478 <Init_GPIO>
  48a468:	e3a0000b 	mov	r0, #11
  48a46c:	e3a01001 	mov	r1, #1
  48a470:	eb000000 	bl	48a478 <Init_GPIO>
  48a474:	e49df004 	pop	{pc}		; (ldr pc, [sp], #4)

0048a478 <Init_GPIO>:
  48a478:	e92d0070 	push	{r4, r5, r6}
  48a47c:	e1a02000 	mov	r2, r0
  48a480:	e3a0600a 	mov	r6, #10
  48a484:	e732f612 	udiv	r2, r2, r6
  48a488:	e3a06004 	mov	r6, #4
  48a48c:	e0020296 	mul	r2, r6, r2

0048a490 <mod10>:
  48a490:	e3500009 	cmp	r0, #9
  48a494:	8240000a 	subhi	r0, r0, #10
  48a498:	8afffffc 	bhi	48a490 <mod10>
  48a49c:	e59f3114 	ldr	r3, [pc, #276]	; 48a5b8 <Read_Data+0x28>
  48a4a0:	e7935002 	ldr	r5, [r3, r2]
  48a4a4:	e3a04007 	mov	r4, #7
  48a4a8:	e3a06003 	mov	r6, #3
  48a4ac:	e0000096 	mul	r0, r6, r0
  48a4b0:	e1a04014 	lsl	r4, r4, r0
  48a4b4:	e1c55004 	bic	r5, r5, r4
  48a4b8:	e1a01011 	lsl	r1, r1, r0
  48a4bc:	e1855001 	orr	r5, r5, r1
  48a4c0:	e7835002 	str	r5, [r3, r2]
  48a4c4:	e8bd0070 	pop	{r4, r5, r6}
  48a4c8:	e1a0f00e 	mov	pc, lr

0048a4cc <ReadSNES>:
  48a4cc:	e92d4440 	push	{r6, sl, lr}
  48a4d0:	e3a01001 	mov	r1, #1
  48a4d4:	eb00001e 	bl	48a554 <Write_Clock>
  48a4d8:	e3a01001 	mov	r1, #1
  48a4dc:	eb000020 	bl	48a564 <Write_Latch>
  48a4e0:	e3a0000c 	mov	r0, #12
  48a4e4:	eb000022 	bl	48a574 <Wait>
  48a4e8:	e3a01000 	mov	r1, #0
  48a4ec:	eb00001c 	bl	48a564 <Write_Latch>
  48a4f0:	e3a06000 	mov	r6, #0
  48a4f4:	e3a0a000 	mov	sl, #0

0048a4f8 <Read_SNES_Loop>:
  48a4f8:	e3560010 	cmp	r6, #16
  48a4fc:	01a0000a 	moveq	r0, sl
  48a500:	08bd8440 	popeq	{r6, sl, pc}
  48a504:	e3a01001 	mov	r1, #1
  48a508:	eb000011 	bl	48a554 <Write_Clock>
  48a50c:	e3a00006 	mov	r0, #6
  48a510:	eb000017 	bl	48a574 <Wait>
  48a514:	e3a01000 	mov	r1, #0
  48a518:	eb00000d 	bl	48a554 <Write_Clock>
  48a51c:	e3a00006 	mov	r0, #6
  48a520:	eb000013 	bl	48a574 <Wait>
  48a524:	eb000019 	bl	48a590 <Read_Data>
  48a528:	e1a00610 	lsl	r0, r0, r6
  48a52c:	e18aa000 	orr	sl, sl, r0
  48a530:	e2866001 	add	r6, r6, #1
  48a534:	eaffffef 	b	48a4f8 <Read_SNES_Loop>

0048a538 <Write_GPIO>:
  48a538:	e3510000 	cmp	r1, #0
  48a53c:	059f2078 	ldreq	r2, [pc, #120]	; 48a5bc <Read_Data+0x2c>
  48a540:	159f2078 	ldrne	r2, [pc, #120]	; 48a5c0 <Read_Data+0x30>
  48a544:	e3a03001 	mov	r3, #1
  48a548:	e1a03013 	lsl	r3, r3, r0
  48a54c:	e5823000 	str	r3, [r2]
  48a550:	e1a0f00e 	mov	pc, lr

0048a554 <Write_Clock>:
  48a554:	e3a0000b 	mov	r0, #11
  48a558:	e52de004 	push	{lr}		; (str lr, [sp, #-4]!)
  48a55c:	ebfffff5 	bl	48a538 <Write_GPIO>
  48a560:	e49df004 	pop	{pc}		; (ldr pc, [sp], #4)

0048a564 <Write_Latch>:
  48a564:	e3a00009 	mov	r0, #9
  48a568:	e52de004 	push	{lr}		; (str lr, [sp, #-4]!)
  48a56c:	ebfffff1 	bl	48a538 <Write_GPIO>
  48a570:	e49df004 	pop	{pc}		; (ldr pc, [sp], #4)

0048a574 <Wait>:
  48a574:	e59f1048 	ldr	r1, [pc, #72]	; 48a5c4 <Read_Data+0x34>
  48a578:	e5912000 	ldr	r2, [r1]
  48a57c:	e0822000 	add	r2, r2, r0

0048a580 <wait_loop>:
  48a580:	e5913000 	ldr	r3, [r1]
  48a584:	e1530002 	cmp	r3, r2
  48a588:	9afffffc 	bls	48a580 <wait_loop>
  48a58c:	e1a0f00e 	mov	pc, lr

0048a590 <Read_Data>:
  48a590:	e3a0000a 	mov	r0, #10
  48a594:	e59f102c 	ldr	r1, [pc, #44]	; 48a5c8 <Read_Data+0x38>
  48a598:	e5912000 	ldr	r2, [r1]
  48a59c:	e3a03001 	mov	r3, #1
  48a5a0:	e1a03013 	lsl	r3, r3, r0
  48a5a4:	e0022003 	and	r2, r2, r3
  48a5a8:	e3520000 	cmp	r2, #0
  48a5ac:	03a00000 	moveq	r0, #0
  48a5b0:	13a00001 	movne	r0, #1
  48a5b4:	e1a0f00e 	mov	pc, lr
  48a5b8:	3f200000 	.word	0x3f200000
  48a5bc:	3f200028 	.word	0x3f200028
  48a5c0:	3f20001c 	.word	0x3f20001c
  48a5c4:	3f003004 	.word	0x3f003004
  48a5c8:	3f200034 	.word	0x3f200034

0048a5cc <menu_select>:
  48a5cc:	e92d4030 	push	{r4, r5, lr}
  48a5d0:	e3a05000 	mov	r5, #0

0048a5d4 <menu_select_loop>:
  48a5d4:	e1a00005 	mov	r0, r5
  48a5d8:	eb00000c 	bl	48a610 <draw_menu_selector>
  48a5dc:	ebffffba 	bl	48a4cc <ReadSNES>
  48a5e0:	e3100c01 	tst	r0, #256	; 0x100
  48a5e4:	03550000 	cmpeq	r5, #0
  48a5e8:	0a000007 	beq	48a60c <end_menu_select>
  48a5ec:	e3100c01 	tst	r0, #256	; 0x100
  48a5f0:	03550001 	cmpeq	r5, #1
  48a5f4:	0a000023 	beq	48a688 <exit_game>
  48a5f8:	e3100010 	tst	r0, #16
  48a5fc:	03a05000 	moveq	r5, #0
  48a600:	e3100020 	tst	r0, #32
  48a604:	03a05001 	moveq	r5, #1
  48a608:	eafffff1 	b	48a5d4 <menu_select_loop>

0048a60c <end_menu_select>:
  48a60c:	e8bd8030 	pop	{r4, r5, pc}

0048a610 <draw_menu_selector>:
  48a610:	e92d4010 	push	{r4, lr}
  48a614:	e59f2084 	ldr	r2, [pc, #132]	; 48a6a0 <haltLoop$+0x4>

0048a618 <draw_on_exit>:
  48a618:	e3500001 	cmp	r0, #1
  48a61c:	1a00000c 	bne	48a654 <draw_on_play>
  48a620:	e59f407c 	ldr	r4, [pc, #124]	; 48a6a4 <haltLoop$+0x8>
  48a624:	e5940000 	ldr	r0, [r4]
  48a628:	e5941004 	ldr	r1, [r4, #4]
  48a62c:	ebffff43 	bl	48a340 <drawPicture>
  48a630:	e59f4070 	ldr	r4, [pc, #112]	; 48a6a8 <haltLoop$+0xc>
  48a634:	e5940000 	ldr	r0, [r4]
  48a638:	e5941004 	ldr	r1, [r4, #4]
  48a63c:	e59f2068 	ldr	r2, [pc, #104]	; 48a6ac <haltLoop$+0x10>
  48a640:	e1d220b0 	ldrh	r2, [r2]
  48a644:	e3a0301b 	mov	r3, #27
  48a648:	e3a0401a 	mov	r4, #26
  48a64c:	ebffff67 	bl	48a3f0 <drawRectangle>
  48a650:	ea00000b 	b	48a684 <end_draw_menu_selector>

0048a654 <draw_on_play>:
  48a654:	e59f404c 	ldr	r4, [pc, #76]	; 48a6a8 <haltLoop$+0xc>
  48a658:	e5940000 	ldr	r0, [r4]
  48a65c:	e5941004 	ldr	r1, [r4, #4]
  48a660:	ebffff36 	bl	48a340 <drawPicture>
  48a664:	e59f4038 	ldr	r4, [pc, #56]	; 48a6a4 <haltLoop$+0x8>
  48a668:	e5940000 	ldr	r0, [r4]
  48a66c:	e5941004 	ldr	r1, [r4, #4]
  48a670:	e59f2034 	ldr	r2, [pc, #52]	; 48a6ac <haltLoop$+0x10>
  48a674:	e1d220b0 	ldrh	r2, [r2]
  48a678:	e3a0301b 	mov	r3, #27
  48a67c:	e3a0401a 	mov	r4, #26
  48a680:	ebffff5a 	bl	48a3f0 <drawRectangle>

0048a684 <end_draw_menu_selector>:
  48a684:	e8bd8010 	pop	{r4, pc}

0048a688 <exit_game>:
  48a688:	e3a00000 	mov	r0, #0
  48a68c:	e3a01000 	mov	r1, #0
  48a690:	e59f2018 	ldr	r2, [pc, #24]	; 48a6b0 <haltLoop$+0x14>
  48a694:	ebffff29 	bl	48a340 <drawPicture>
  48a698:	eaffffff 	b	48a69c <haltLoop$>

0048a69c <haltLoop$>:
  48a69c:	eafffffe 	b	48a69c <haltLoop$>
  48a6a0:	000090b0 	.word	0x000090b0
  48a6a4:	0048a024 	.word	0x0048a024
  48a6a8:	0048a01c 	.word	0x0048a01c
  48a6ac:	0048a02c 	.word	0x0048a02c
  48a6b0:	000090bc 	.word	0x000090bc

0048a6b4 <main>:
  48a6b4:	e3a0d902 	mov	sp, #32768	; 0x8000
  48a6b8:	ebfffe5c 	bl	48a030 <EnableJTAG>
  48a6bc:	ebfffe7e 	bl	48a0bc <InitFrameBuffer>
  48a6c0:	ebffff61 	bl	48a44c <InitGPIOSNES>
  48a6c4:	e59f411c 	ldr	r4, [pc, #284]	; 48a7e8 <render+0x14>
  48a6c8:	e0d450b2 	ldrh	r5, [r4], #2
  48a6cc:	e0d460b2 	ldrh	r6, [r4], #2
  48a6d0:	e0d470b2 	ldrh	r7, [r4], #2
  48a6d4:	e0d480b2 	ldrh	r8, [r4], #2
  48a6d8:	e1d490b0 	ldrh	r9, [r4]
  48a6dc:	ebffff2b 	bl	48a390 <clearScreen>

0048a6e0 <start_sceen>:
  48a6e0:	e3a00000 	mov	r0, #0
  48a6e4:	e3a01000 	mov	r1, #0
  48a6e8:	e59f20fc 	ldr	r2, [pc, #252]	; 48a7ec <render+0x18>
  48a6ec:	ebffff13 	bl	48a340 <drawPicture>
  48a6f0:	ebffffb5 	bl	48a5cc <menu_select>

0048a6f4 <play_game>:
  48a6f4:	e3a00000 	mov	r0, #0
  48a6f8:	e3a01000 	mov	r1, #0
  48a6fc:	e59f20ec 	ldr	r2, [pc, #236]	; 48a7f0 <render+0x1c>
  48a700:	ebffff0e 	bl	48a340 <drawPicture>

0048a704 <game_loop>:
  48a704:	eb000003 	bl	48a718 <update>
  48a708:	eb00002c 	bl	48a7c0 <collision>
  48a70c:	eb000030 	bl	48a7d4 <render>
  48a710:	eafffffb 	b	48a704 <game_loop>

0048a714 <haltLoop$>:
  48a714:	eafffffe 	b	48a714 <haltLoop$>

0048a718 <update>:
  48a718:	e92d4070 	push	{r4, r5, r6, lr}
  48a71c:	ebffff6a 	bl	48a4cc <ReadSNES>
  48a720:	e59f10cc 	ldr	r1, [pc, #204]	; 48a7f4 <render+0x20>
  48a724:	e0214000 	eor	r4, r1, r0
  48a728:	e3a05000 	mov	r5, #0
  48a72c:	e59f20c4 	ldr	r2, [pc, #196]	; 48a7f8 <render+0x24>
  48a730:	e5929000 	ldr	r9, [r2]
  48a734:	e3590001 	cmp	r9, #1
  48a738:	0a000000 	beq	48a740 <jumping>
  48a73c:	ba000008 	blt	48a764 <check_A>

0048a740 <jumping>:
  48a740:	e59f00b4 	ldr	r0, [pc, #180]	; 48a7fc <render+0x28>
  48a744:	e5901000 	ldr	r1, [r0]
  48a748:	e3510096 	cmp	r1, #150	; 0x96
  48a74c:	cbfffe7a 	blgt	48a13c <endJump>
  48a750:	ca00000d 	bgt	48a78c <move_left_right>
  48a754:	e3e05000 	mvn	r5, #0
  48a758:	e2811001 	add	r1, r1, #1
  48a75c:	e5801000 	str	r1, [r0]
  48a760:	ea000009 	b	48a78c <move_left_right>

0048a764 <check_A>:
  48a764:	e3140c01 	tst	r4, #256	; 0x100
  48a768:	0a000006 	beq	48a788 <falling>
  48a76c:	e59f008c 	ldr	r0, [pc, #140]	; 48a800 <render+0x2c>
  48a770:	e5900000 	ldr	r0, [r0]
  48a774:	e3500001 	cmp	r0, #1
  48a778:	1a000002 	bne	48a788 <falling>
  48a77c:	e3a00001 	mov	r0, #1
  48a780:	e5820000 	str	r0, [r2]
  48a784:	ea000000 	b	48a78c <move_left_right>

0048a788 <falling>:
  48a788:	e3a05001 	mov	r5, #1

0048a78c <move_left_right>:
  48a78c:	e59f6070 	ldr	r6, [pc, #112]	; 48a804 <render+0x30>
  48a790:	e8960003 	ldm	r6, {r0, r1}
  48a794:	e3a02000 	mov	r2, #0
  48a798:	e3140080 	tst	r4, #128	; 0x80
  48a79c:	13a02001 	movne	r2, #1
  48a7a0:	e3140040 	tst	r4, #64	; 0x40
  48a7a4:	13e02000 	mvnne	r2, #0
  48a7a8:	e1a03005 	mov	r3, r5
  48a7ac:	e0800002 	add	r0, r0, r2
  48a7b0:	e0811003 	add	r1, r1, r3
  48a7b4:	e886000f 	stm	r6, {r0, r1, r2, r3}

0048a7b8 <update_end>:
  48a7b8:	e8bd4070 	pop	{r4, r5, r6, lr}
  48a7bc:	e12fff1e 	bx	lr

0048a7c0 <collision>:
  48a7c0:	e52de004 	push	{lr}		; (str lr, [sp, #-4]!)
  48a7c4:	eb00004d 	bl	48a900 <CollisionMarioBottom>
  48a7c8:	eb000060 	bl	48a950 <CollisionMarioTop>
  48a7cc:	e49de004 	pop	{lr}		; (ldr lr, [sp], #4)
  48a7d0:	e12fff1e 	bx	lr

0048a7d4 <render>:
  48a7d4:	e52de004 	push	{lr}		; (str lr, [sp, #-4]!)
  48a7d8:	e59f0024 	ldr	r0, [pc, #36]	; 48a804 <render+0x30>
  48a7dc:	ebfffe61 	bl	48a168 <moveThing>
  48a7e0:	e49de004 	pop	{lr}		; (ldr lr, [sp], #4)
  48a7e4:	e12fff1e 	bx	lr
  48a7e8:	000090fc 	.word	0x000090fc
  48a7ec:	000090a4 	.word	0x000090a4
  48a7f0:	000090c8 	.word	0x000090c8
  48a7f4:	0000ffff 	.word	0x0000ffff
  48a7f8:	000090f4 	.word	0x000090f4
  48a7fc:	000090f0 	.word	0x000090f0
  48a800:	00009084 	.word	0x00009084
  48a804:	00009088 	.word	0x00009088

0048a808 <getPixelColor>:
  48a808:	e92d4078 	push	{r3, r4, r5, r6, lr}
  48a80c:	e8920038 	ldm	r2, {r3, r4, r5}
  48a810:	e1500004 	cmp	r0, r4
  48a814:	ca000005 	bgt	48a830 <get_pixel_oor>
  48a818:	e1510005 	cmp	r1, r5
  48a81c:	ca000003 	bgt	48a830 <get_pixel_oor>
  48a820:	e0806501 	add	r6, r0, r1, lsl #10
  48a824:	e1a06086 	lsl	r6, r6, #1
  48a828:	e19300b6 	ldrh	r0, [r3, r6]
  48a82c:	ea000000 	b	48a834 <get_pixel_end>

0048a830 <get_pixel_oor>:
  48a830:	e3e00000 	mvn	r0, #0

0048a834 <get_pixel_end>:
  48a834:	e8bd4078 	pop	{r3, r4, r5, r6, lr}
  48a838:	e12fff1e 	bx	lr

0048a83c <CollisionColorCheck>:
  48a83c:	e92d47f0 	push	{r4, r5, r6, r7, r8, r9, sl, lr}
  48a840:	e1a09002 	mov	r9, r2
  48a844:	e8b000c0 	ldm	r0!, {r6, r7}
  48a848:	e280000c 	add	r0, r0, #12
  48a84c:	e8900030 	ldm	r0, {r4, r5}
  48a850:	e59f81b8 	ldr	r8, [pc, #440]	; 48aa10 <iCC_end+0x8>
  48a854:	e5988000 	ldr	r8, [r8]
  48a858:	e3510001 	cmp	r1, #1
  48a85c:	00477005 	subeq	r7, r7, r5
  48a860:	0a000007 	beq	48a884 <CCC_top_bottom>
  48a864:	e3510002 	cmp	r1, #2
  48a868:	0a000005 	beq	48a884 <CCC_top_bottom>
  48a86c:	e3510003 	cmp	r1, #3
  48a870:	0a000011 	beq	48a8bc <CCC_right_left>
  48a874:	e3510004 	cmp	r1, #4
  48a878:	00466004 	subeq	r6, r6, r4
  48a87c:	0a00000e 	beq	48a8bc <CCC_right_left>
  48a880:	ea00001b 	b	48a8f4 <CCC_error>

0048a884 <CCC_top_bottom>:
  48a884:	e046a004 	sub	sl, r6, r4
  48a888:	ea000007 	b	48a8ac <CCC_top_bottom_loop_test>

0048a88c <CCC_top_bottom_loop>:
  48a88c:	e1a00006 	mov	r0, r6
  48a890:	e1a01007 	mov	r1, r7
  48a894:	e1a02008 	mov	r2, r8
  48a898:	ebffffda 	bl	48a808 <getPixelColor>
  48a89c:	e1500009 	cmp	r0, r9
  48a8a0:	03a00001 	moveq	r0, #1
  48a8a4:	0a000013 	beq	48a8f8 <CCC_end>
  48a8a8:	e2466001 	sub	r6, r6, #1

0048a8ac <CCC_top_bottom_loop_test>:
  48a8ac:	e156000a 	cmp	r6, sl
  48a8b0:	aafffff5 	bge	48a88c <CCC_top_bottom_loop>
  48a8b4:	e3a00000 	mov	r0, #0
  48a8b8:	ea00000e 	b	48a8f8 <CCC_end>

0048a8bc <CCC_right_left>:
  48a8bc:	e047a005 	sub	sl, r7, r5
  48a8c0:	ea000007 	b	48a8e4 <CCC_right_left_loop_test>

0048a8c4 <CCC_right_left_loop>:
  48a8c4:	e1a00006 	mov	r0, r6
  48a8c8:	e1a01007 	mov	r1, r7
  48a8cc:	e1a02008 	mov	r2, r8
  48a8d0:	ebffffcc 	bl	48a808 <getPixelColor>
  48a8d4:	e1500009 	cmp	r0, r9
  48a8d8:	03a00001 	moveq	r0, #1
  48a8dc:	0a000005 	beq	48a8f8 <CCC_end>
  48a8e0:	e2477001 	sub	r7, r7, #1

0048a8e4 <CCC_right_left_loop_test>:
  48a8e4:	e157000a 	cmp	r7, sl
  48a8e8:	aafffff5 	bge	48a8c4 <CCC_right_left_loop>
  48a8ec:	e3a00000 	mov	r0, #0
  48a8f0:	ea000000 	b	48a8f8 <CCC_end>

0048a8f4 <CCC_error>:
  48a8f4:	e3e00000 	mvn	r0, #0

0048a8f8 <CCC_end>:
  48a8f8:	e8bd47f0 	pop	{r4, r5, r6, r7, r8, r9, sl, lr}
  48a8fc:	e12fff1e 	bx	lr

0048a900 <CollisionMarioBottom>:
  48a900:	e92d40f0 	push	{r4, r5, r6, r7, lr}
  48a904:	e59f0108 	ldr	r0, [pc, #264]	; 48aa14 <iCC_end+0xc>
  48a908:	e89000f0 	ldm	r0, {r4, r5, r6, r7}
  48a90c:	e59f0100 	ldr	r0, [pc, #256]	; 48aa14 <iCC_end+0xc>
  48a910:	eb000022 	bl	48a9a0 <isCollisionFloor>
  48a914:	e3500001 	cmp	r0, #1
  48a918:	0a000003 	beq	48a92c <CMB_floor>
  48a91c:	e59f00f4 	ldr	r0, [pc, #244]	; 48aa18 <iCC_end+0x10>
  48a920:	e3a01000 	mov	r1, #0
  48a924:	e5801000 	str	r1, [r0]
  48a928:	ea000006 	b	48a948 <CMB_end>

0048a92c <CMB_floor>:
  48a92c:	e0455007 	sub	r5, r5, r7
  48a930:	e3a07000 	mov	r7, #0
  48a934:	e59f00d8 	ldr	r0, [pc, #216]	; 48aa14 <iCC_end+0xc>
  48a938:	e88000f0 	stm	r0, {r4, r5, r6, r7}
  48a93c:	e59f00d4 	ldr	r0, [pc, #212]	; 48aa18 <iCC_end+0x10>
  48a940:	e3a01001 	mov	r1, #1
  48a944:	e5801000 	str	r1, [r0]

0048a948 <CMB_end>:
  48a948:	e8bd40f0 	pop	{r4, r5, r6, r7, lr}
  48a94c:	e12fff1e 	bx	lr

0048a950 <CollisionMarioTop>:
  48a950:	e92d40f0 	push	{r4, r5, r6, r7, lr}
  48a954:	e59f00b8 	ldr	r0, [pc, #184]	; 48aa14 <iCC_end+0xc>
  48a958:	e89000f0 	ldm	r0, {r4, r5, r6, r7}
  48a95c:	e59f00b0 	ldr	r0, [pc, #176]	; 48aa14 <iCC_end+0xc>
  48a960:	e3a01001 	mov	r1, #1
  48a964:	e59f20b0 	ldr	r2, [pc, #176]	; 48aa1c <iCC_end+0x14>
  48a968:	ebffffb3 	bl	48a83c <CollisionColorCheck>
  48a96c:	e3500001 	cmp	r0, #1
  48a970:	0a000000 	beq	48a978 <CMT_ceiling>
  48a974:	eafffff3 	b	48a948 <CMB_end>

0048a978 <CMT_ceiling>:
  48a978:	e0444006 	sub	r4, r4, r6
  48a97c:	e3a06000 	mov	r6, #0
  48a980:	e59f008c 	ldr	r0, [pc, #140]	; 48aa14 <iCC_end+0xc>
  48a984:	e88000f0 	stm	r0, {r4, r5, r6, r7}
  48a988:	ebfffdeb 	bl	48a13c <endJump>

0048a98c <CMT_end>:
  48a98c:	e8bd40f0 	pop	{r4, r5, r6, r7, lr}
  48a990:	e12fff1e 	bx	lr
  48a994:	e92d40f0 	push	{r4, r5, r6, r7, lr}
  48a998:	e59f0074 	ldr	r0, [pc, #116]	; 48aa14 <iCC_end+0xc>
  48a99c:	e89000f0 	ldm	r0, {r4, r5, r6, r7}

0048a9a0 <isCollisionFloor>:
  48a9a0:	e92d4030 	push	{r4, r5, lr}
  48a9a4:	e1a04000 	mov	r4, r0
  48a9a8:	e3a05000 	mov	r5, #0
  48a9ac:	e1a00004 	mov	r0, r4
  48a9b0:	e3a01002 	mov	r1, #2
  48a9b4:	e59f2064 	ldr	r2, [pc, #100]	; 48aa20 <iCC_end+0x18>
  48a9b8:	e5922000 	ldr	r2, [r2]
  48a9bc:	ebffff9e 	bl	48a83c <CollisionColorCheck>
  48a9c0:	e3500001 	cmp	r0, #1
  48a9c4:	0a00000e 	beq	48aa04 <iCC_true>
  48a9c8:	e1a00004 	mov	r0, r4
  48a9cc:	e3a01002 	mov	r1, #2
  48a9d0:	e59f204c 	ldr	r2, [pc, #76]	; 48aa24 <iCC_end+0x1c>
  48a9d4:	e5922000 	ldr	r2, [r2]
  48a9d8:	ebffff97 	bl	48a83c <CollisionColorCheck>
  48a9dc:	e3500001 	cmp	r0, #1
  48a9e0:	0a000007 	beq	48aa04 <iCC_true>
  48a9e4:	e1a00004 	mov	r0, r4
  48a9e8:	e3a01002 	mov	r1, #2
  48a9ec:	e59f2034 	ldr	r2, [pc, #52]	; 48aa28 <iCC_end+0x20>
  48a9f0:	e5922000 	ldr	r2, [r2]
  48a9f4:	ebffff90 	bl	48a83c <CollisionColorCheck>
  48a9f8:	e3500001 	cmp	r0, #1
  48a9fc:	0a000000 	beq	48aa04 <iCC_true>
  48aa00:	ea000000 	b	48aa08 <iCC_end>

0048aa04 <iCC_true>:
  48aa04:	e3a05001 	mov	r5, #1

0048aa08 <iCC_end>:
  48aa08:	e8bd4030 	pop	{r4, r5, lr}
  48aa0c:	e12fff1e 	bx	lr
  48aa10:	00009080 	.word	0x00009080
  48aa14:	00009088 	.word	0x00009088
  48aa18:	00009084 	.word	0x00009084
  48aa1c:	0000ff80 	.word	0x0000ff80
  48aa20:	000090e4 	.word	0x000090e4
  48aa24:	000090ec 	.word	0x000090ec
  48aa28:	000090e8 	.word	0x000090e8
